target datalayout = "e-m:e-p270:32:32-p271:32:32-p272:64:64-i64:64-i128:128-f80:128-n8:16:32:64-S128"
target triple = "x86_64-pc-linux-gnu"

%struct.raxIterator = type { i32, ptr, ptr, ptr, i64, i64, [128 x i8], ptr, %struct.raxStack, ptr }
%struct.raxStack = type { ptr, i64, i64, [32 x ptr], i32 }
%struct.streamID = type { i64, i64 }
%struct.streamCG = type { %struct.streamID, i64, ptr, ptr }

; Function Attrs: nounwind uwtable
define dso_local ptr @defragStreamConsumerGroup(ptr noundef %0, ptr noundef %1) #0 {
  %3 = alloca ptr, align 8
  %4 = alloca ptr, align 8
  %5 = alloca ptr, align 8
  store ptr %0, ptr %3, align 8, !tbaa !143
  store ptr %1, ptr %4, align 8, !tbaa !5
  call void @llvm.lifetime.start.p0(i64 8, ptr %5) #10
  %6 = load ptr, ptr %3, align 8, !tbaa !143
  %7 = getelementptr inbounds nuw %struct.raxIterator, ptr %6, i32 0, i32 3
  %8 = load ptr, ptr %7, align 8, !tbaa !134
  store ptr %8, ptr %5, align 8, !tbaa !157
  %9 = load ptr, ptr %5, align 8, !tbaa !157
  %10 = getelementptr inbounds nuw %struct.streamCG, ptr %9, i32 0, i32 3
  %11 = load ptr, ptr %10, align 8, !tbaa !161
  %12 = icmp ne ptr %11, null
  br i1 %12, label %13, label %17

13:                                               ; preds = %2
  %14 = load ptr, ptr %5, align 8, !tbaa !157
  %15 = getelementptr inbounds nuw %struct.streamCG, ptr %14, i32 0, i32 3
  %16 = load ptr, ptr %5, align 8, !tbaa !157
  call void @defragRadixTree(ptr noundef %15, i32 noundef 0, ptr noundef @defragStreamConsumer, ptr noundef %16)
  br label %17

17:                                               ; preds = %13, %2
  %18 = load ptr, ptr %5, align 8, !tbaa !157
  %19 = getelementptr inbounds nuw %struct.streamCG, ptr %18, i32 0, i32 2
  %20 = load ptr, ptr %19, align 8, !tbaa !154
  %21 = icmp ne ptr %20, null
  br i1 %21, label %22, label %25

22:                                               ; preds = %17
  %23 = load ptr, ptr %5, align 8, !tbaa !157
  %24 = getelementptr inbounds nuw %struct.streamCG, ptr %23, i32 0, i32 2
  call void @defragRadixTree(ptr noundef %24, i32 noundef 0, ptr noundef null, ptr noundef null)
  br label %25

25:                                               ; preds = %22, %17
  call void @llvm.lifetime.end.p0(i64 8, ptr %5) #10
  ret ptr null
}