; Function Attrs: nounwind uwtable
define dso_local noalias noundef ptr @defragStreamConsumerGroup(ptr noundef readonly captures(none) %0, ptr readnone captures(none) %1) #0 {
  %3 = getelementptr inbounds nuw i8, ptr %0, i64 24
  %4 = load ptr, ptr %3, align 8, !tbaa !110
  %5 = getelementptr inbounds nuw i8, ptr %4, i64 32
  %6 = load ptr, ptr %5, align 8, !tbaa !130
  %.not = icmp eq ptr %6, null
  br i1 %.not, label %8, label %7

7:                                                ; preds = %2
  tail call void @defragRadixTree(ptr noundef nonnull %5, i32 noundef 0, ptr noundef nonnull @defragStreamConsumer, ptr noundef nonnull %4)
  br label %8

8:                                                ; preds = %7, %2
  %9 = getelementptr inbounds nuw i8, ptr %4, i64 24
  %10 = load ptr, ptr %9, align 8, !tbaa !124
  %.not6 = icmp eq ptr %10, null
  br i1 %.not6, label %12, label %11

11:                                               ; preds = %8
  tail call void @defragRadixTree(ptr noundef nonnull %9, i32 noundef 0, ptr noundef null, ptr noundef null)
  br label %12

12:                                               ; preds = %11, %8
  ret ptr null
}